; Function Attrs: nounwind uwtable
define i32 @Prs_CreateVerilogFindFon(ptr noundef readonly captures(none) %0, i32 noundef %1) local_unnamed_addr #0 {
  %.val = load ptr, ptr %0, align 8
  %3 = getelementptr inbounds nuw i8, ptr %.val, i64 48
  %4 = add nsw i32 %1, 1
  tail call fastcc void @Vec_IntFillExtra(ptr noundef nonnull %3, i32 noundef %4)
  %5 = getelementptr i8, ptr %.val, i64 56
  %.val.i.i.i = load ptr, ptr %5, align 8
  %6 = sext i32 %1 to i64
  %7 = getelementptr inbounds i32, ptr %.val.i.i.i, i64 %6
  %8 = load i32, ptr %7, align 4
  %.not = icmp eq i32 %8, 0
  br i1 %.not, label %9, label %16

9:                                                ; preds = %2
  %.val9 = load ptr, ptr %0, align 8
  %10 = getelementptr i8, ptr %0, i64 12
  %.val10 = load i32, ptr %10, align 4
  %11 = getelementptr i8, ptr %.val9, i64 16
  %.val9.val = load ptr, ptr %11, align 8
  %12 = tail call ptr @Abc_NamStr(ptr noundef %.val9.val, i32 noundef %.val10) #28
  %.val8 = load ptr, ptr %0, align 8
  %13 = getelementptr i8, ptr %.val8, i64 16
  %.val8.val = load ptr, ptr %13, align 8
  %14 = tail call ptr @Abc_NamStr(ptr noundef %.val8.val, i32 noundef %1) #28
  %15 = tail call i32 (ptr, ...) @printf(ptr noundef nonnull dereferenceable(1) @.str.16, ptr noundef %12, ptr noundef %14)
  br label %16

16:                                               ; preds = %2, %9
  ret i32 %8
}